Certificate:
    Data:
        Version: 3 (0x2)
        Serial Number:
            11:79:7a:0a:b7:73:21:bd:e3:66:d3:bb:6c:6f:c5:fb
    Signature Algorithm: sha256WithRSAEncryption
        Issuer: CN=floriankempenich.com
        Validity
            Not Before: Jan 31 21:11:41 2018 GMT
            Not After : Jan 29 21:11:41 2028 GMT
        Subject: CN=floriankempenich.com
        Subject Public Key Info:
            Public Key Algorithm: rsaEncryption
                Public-Key: (2048 bit)
                Modulus:
                    00:b1:ad:d7:69:fd:46:fa:2b:e8:4f:e5:1a:78:3d:
                    81:78:2d:6b:51:d2:da:2f:41:de:9b:91:82:6c:21:
                    98:1b:2a:98:43:ec:ec:d6:77:87:f5:aa:08:96:49:
                    21:ed:98:91:aa:fa:58:bd:6a:89:93:13:85:97:b3:
                    1d:f0:f7:38:9a:f7:12:28:76:57:64:d4:a5:7f:af:
                    e1:1f:21:9e:b7:41:9a:45:a2:13:c6:bd:ff:fc:b9:
                    19:d8:02:e7:ad:17:11:73:87:e4:e8:8e:f8:47:de:
                    61:31:0f:6e:1e:62:52:58:4d:0a:ad:c1:c3:46:7f:
                    b3:2e:d0:bc:1e:08:f0:e1:2c:9b:de:96:91:a8:6f:
                    85:e5:09:93:ee:5b:06:64:1c:94:e3:9b:13:47:1b:
                    23:b8:d1:26:44:a2:c6:aa:ac:58:a3:eb:67:00:ea:
                    97:f1:e6:6c:15:99:b5:ed:f3:e7:ec:ca:07:d9:7c:
                    01:55:bb:a7:eb:42:b7:24:5e:97:95:f7:9c:3a:80:
                    e1:b1:7d:e6:b0:61:cd:20:cf:49:0c:91:55:5b:df:
                    6c:8f:32:74:5a:3d:fe:f7:98:97:4d:9e:b0:22:28:
                    c2:df:53:f6:07:6f:1f:52:ad:d7:45:04:99:46:f2:
                    9e:bb:52:f0:6a:7e:10:00:08:b9:bc:ad:67:65:27:
                    cd:63
                Exponent: 65537 (0x10001)
        X509v3 extensions:
            X509v3 Basic Constraints: 
                CA:FALSE
            X509v3 Subject Key Identifier: 
                BC:71:EF:09:25:27:E2:FF:42:BF:57:75:EF:AE:68:57:29:6C:60:93
            X509v3 Authority Key Identifier: 
                keyid:CE:3F:A1:DE:2D:CB:6E:1C:A2:C1:11:32:1E:EC:9A:2B:42:53:83:1F
                DirName:/CN=floriankempenich.com
                serial:CA:40:69:03:F4:F9:B4:5E

            X509v3 Extended Key Usage: 
                TLS Web Server Authentication
            X509v3 Key Usage: 
                Digital Signature, Key Encipherment
            X509v3 Subject Alternative Name: 
                DNS:floriankempenich.com
    Signature Algorithm: sha256WithRSAEncryption
         20:1f:93:b0:38:f0:a4:a6:6c:95:7f:bf:ea:16:c3:3b:9a:5c:
         71:93:3a:38:d5:a1:35:1e:46:96:c6:c6:e2:38:01:4d:fc:0a:
         1f:66:60:7f:89:68:1b:2c:f1:16:b9:0c:c9:97:cb:82:d9:33:
         23:76:37:f5:08:48:33:25:47:ca:cb:b4:fe:c1:71:66:56:3d:
         54:ad:06:02:db:f2:ae:7c:d0:ed:b7:22:c4:10:45:b5:5c:c3:
         1f:b8:2e:b8:e3:ba:2a:cd:a8:60:e4:cc:4f:4d:dd:25:e9:6f:
         d2:bb:c6:e1:b9:ca:f2:9e:f9:c7:24:4f:69:73:ab:0d:0f:61:
         02:4f:1f:10:3a:b5:56:1e:0a:79:df:b6:84:28:cd:31:72:69:
         d2:d2:69:46:a1:e3:35:c2:27:dd:83:39:f0:f1:47:71:67:64:
         50:8b:04:34:9d:ef:82:fd:dd:ff:cf:c2:59:ab:e2:aa:73:9a:
         41:16:9e:81:59:05:55:79:16:a5:6f:29:0c:7b:68:d6:79:b8:
         1f:eb:b2:f2:a0:df:51:6b:20:6e:f2:93:fa:2f:19:80:5b:0e:
         08:5f:f8:29:3d:67:89:c8:6b:e0:7d:aa:e4:82:ed:46:48:98:
         45:6b:03:df:29:7d:d2:5d:39:f0:3d:ae:c9:de:3d:3f:2e:94:
         2c:b4:45:8b
-----BEGIN CERTIFICATE-----
MIIDijCCAnKgAwIBAgIQEXl6CrdzIb3jZtO7bG/F+zANBgkqhkiG9w0BAQsFADAf
MR0wGwYDVQQDDBRmbG9yaWFua2VtcGVuaWNoLmNvbTAeFw0xODAxMzEyMTExNDFa
Fw0yODAxMjkyMTExNDFaMB8xHTAbBgNVBAMMFGZsb3JpYW5rZW1wZW5pY2guY29t
MIIBIjANBgkqhkiG9w0BAQEFAAOCAQ8AMIIBCgKCAQEAsa3Xaf1G+ivoT+UaeD2B
eC1rUdLaL0Hem5GCbCGYGyqYQ+zs1neH9aoIlkkh7ZiRqvpYvWqJkxOFl7Md8Pc4
mvcSKHZXZNSlf6/hHyGet0GaRaITxr3//LkZ2ALnrRcRc4fk6I74R95hMQ9uHmJS
WE0KrcHDRn+zLtC8Hgjw4Syb3paRqG+F5QmT7lsGZByU45sTRxsjuNEmRKLGqqxY
o+tnAOqX8eZsFZm17fPn7MoH2XwBVbun60K3JF6XlfecOoDhsX3msGHNIM9JDJFV
W99sjzJ0Wj3+95iXTZ6wIijC31P2B28fUq3XRQSZRvKeu1Lwan4QAAi5vK1nZSfN
YwIDAQABo4HBMIG+MAkGA1UdEwQCMAAwHQYDVR0OBBYEFLxx7wklJ+L/Qr9Xde+u
aFcpbGCTME8GA1UdIwRIMEaAFM4/od4ty24cosERMh7smitCU4MfoSOkITAfMR0w
GwYDVQQDDBRmbG9yaWFua2VtcGVuaWNoLmNvbYIJAMpAaQP0+bReMBMGA1UdJQQM
MAoGCCsGAQUFBwMBMAsGA1UdDwQEAwIFoDAfBgNVHREEGDAWghRmbG9yaWFua2Vt
cGVuaWNoLmNvbTANBgkqhkiG9w0BAQsFAAOCAQEAIB+TsDjwpKZslX+/6hbDO5pc
cZM6ONWhNR5GlsbG4jgBTfwKH2Zgf4loGyzxFrkMyZfLgtkzI3Y39QhIMyVHysu0
/sFxZlY9VK0GAtvyrnzQ7bcixBBFtVzDH7guuOO6Ks2oYOTMT03dJelv0rvG4bnK
8p75xyRPaXOrDQ9hAk8fEDq1Vh4Ked+2hCjNMXJp0tJpRqHjNcIn3YM58PFHcWdk
UIsENJ3vgv3d/8/CWaviqnOaQRaegVkFVXkWpW8pDHto1nm4H+uy8qDfUWsgbvKT
+i8ZgFsOCF/4KT1nichr4H2q5ILtRkiYRWsD3yl90l058D2uyd49Py6ULLRFiw==
-----END CERTIFICATE-----
